target datalayout = "e-m:e-p270:32:32-p271:32:32-p272:64:64-i64:64-i128:128-f80:128-n8:16:32:64-S128"
target triple = "x86_64-pc-linux-gnu"

%"class.__gnu_cxx::__normal_iterator" = type { ptr }
%"struct.std::_Vector_base" = type { %"struct.std::_Vector_base<lean::name, std::allocator<lean::name>>::_Vector_impl" }
%"struct.std::_Vector_base<lean::name, std::allocator<lean::name>>::_Vector_impl" = type { %"struct.std::_Vector_base<lean::name, std::allocator<lean::name>>::_Vector_impl_data" }
%"struct.std::_Vector_base<lean::name, std::allocator<lean::name>>::_Vector_impl_data" = type { ptr, ptr, ptr }

@_ZN4leanL32get_enabled_trace_classes_tlocalE = internal thread_local(initialexec) global ptr null, align 8
@_ZN4leanL33get_disabled_trace_classes_tlocalE = internal thread_local(initialexec) global ptr null, align 8

; Function Attrs: alwaysinline mustprogress nounwind uwtable
define linkonce_odr hidden void @_ZNSt15__new_allocatorIN4lean4nameEEC2Ev(ptr noundef nonnull align 1 dereferenceable(1) %0) unnamed_addr #11 comdat align 2 {
  %2 = alloca ptr, align 8
  store ptr %0, ptr %2, align 8, !tbaa !107
  ret void
}

; Function Attrs: mustprogress nounwind uwtable
define linkonce_odr hidden void @_ZNSt12_Vector_baseIN4lean4nameESaIS1_EE17_Vector_impl_dataC2Ev(ptr noundef nonnull align 8 dereferenceable(24) %0) unnamed_addr #4 comdat align 2 {
  %2 = alloca ptr, align 8
  store ptr %0, ptr %2, align 8, !tbaa !104
  %3 = load ptr, ptr %2, align 8
  %4 = getelementptr inbounds nuw %"struct.std::_Vector_base<lean::name, std::allocator<lean::name>>::_Vector_impl_data", ptr %3, i32 0, i32 0
  store ptr null, ptr %4, align 8, !tbaa !45
  %5 = getelementptr inbounds nuw %"struct.std::_Vector_base<lean::name, std::allocator<lean::name>>::_Vector_impl_data", ptr %3, i32 0, i32 1
  store ptr null, ptr %5, align 8, !tbaa !43
  %6 = getelementptr inbounds nuw %"struct.std::_Vector_base<lean::name, std::allocator<lean::name>>::_Vector_impl_data", ptr %3, i32 0, i32 2
  store ptr null, ptr %6, align 8, !tbaa !106
  ret void
}

; Function Attrs: alwaysinline mustprogress nounwind uwtable
define linkonce_odr hidden void @_ZNSaIN4lean4nameEEC2Ev(ptr noundef nonnull align 1 dereferenceable(1) %0) unnamed_addr #11 comdat align 2 {
  %2 = alloca ptr, align 8
  store ptr %0, ptr %2, align 8, !tbaa !102
  %3 = load ptr, ptr %2, align 8
  call void @_ZNSt15__new_allocatorIN4lean4nameEEC2Ev(ptr noundef nonnull align 1 dereferenceable(1) %3) #17
  ret void
}

; Function Attrs: mustprogress nounwind uwtable
define linkonce_odr hidden void @_ZNSt12_Vector_baseIN4lean4nameESaIS1_EE12_Vector_implC2Ev(ptr noundef nonnull align 8 dereferenceable(24) %0) unnamed_addr #4 comdat align 2 {
  %2 = alloca ptr, align 8
  store ptr %0, ptr %2, align 8, !tbaa !100
  %3 = load ptr, ptr %2, align 8
  call void @_ZNSaIN4lean4nameEEC2Ev(ptr noundef nonnull align 1 dereferenceable(1) %3) #17
  call void @_ZNSt12_Vector_baseIN4lean4nameESaIS1_EE17_Vector_impl_dataC2Ev(ptr noundef nonnull align 8 dereferenceable(24) %3) #17
  ret void
}

; Function Attrs: mustprogress nounwind uwtable
define linkonce_odr hidden noundef nonnull align 8 dereferenceable(8) ptr @_ZNK9__gnu_cxx17__normal_iteratorIPKN4lean4nameESt6vectorIS2_SaIS2_EEE4baseEv(ptr noundef nonnull align 8 dereferenceable(8) %0) #4 comdat align 2 {
  %2 = alloca ptr, align 8
  store ptr %0, ptr %2, align 8, !tbaa !110
  %3 = load ptr, ptr %2, align 8
  %4 = getelementptr inbounds nuw %"class.__gnu_cxx::__normal_iterator", ptr %3, i32 0, i32 0
  ret ptr %4
}

; Function Attrs: mustprogress nounwind uwtable
define linkonce_odr hidden void @_ZN9__gnu_cxx17__normal_iteratorIPKN4lean4nameESt6vectorIS2_SaIS2_EEEC2ERKS4_(ptr noundef nonnull align 8 dereferenceable(8) %0, ptr noundef nonnull align 8 dereferenceable(8) %1) unnamed_addr #4 comdat align 2 {
  %3 = alloca ptr, align 8
  %4 = alloca ptr, align 8
  store ptr %0, ptr %3, align 8, !tbaa !110
  store ptr %1, ptr %4, align 8, !tbaa !114
  %5 = load ptr, ptr %3, align 8
  %6 = getelementptr inbounds nuw %"class.__gnu_cxx::__normal_iterator", ptr %5, i32 0, i32 0
  %7 = load ptr, ptr %4, align 8, !tbaa !114
  %8 = load ptr, ptr %7, align 8, !tbaa !3
  store ptr %8, ptr %6, align 8, !tbaa !112
  ret void
}

; Function Attrs: mustprogress nounwind uwtable
define linkonce_odr hidden void @_ZNSt12_Vector_baseIN4lean4nameESaIS1_EEC2Ev(ptr noundef nonnull align 8 dereferenceable(24) %0) unnamed_addr #4 comdat align 2 {
  %2 = alloca ptr, align 8
  store ptr %0, ptr %2, align 8, !tbaa !98
  %3 = load ptr, ptr %2, align 8
  %4 = getelementptr inbounds nuw %"struct.std::_Vector_base", ptr %3, i32 0, i32 0
  call void @_ZNSt12_Vector_baseIN4lean4nameESaIS1_EE12_Vector_implC2Ev(ptr noundef nonnull align 8 dereferenceable(24) %4) #17
  ret void
}

; Function Attrs: inlinehint mustprogress nounwind uwtable
define linkonce_odr noundef zeroext i1 @_ZN9__gnu_cxxeqIPKN4lean4nameESt6vectorIS2_SaIS2_EEEEbRKNS_17__normal_iteratorIT_T0_EESD_(ptr noundef nonnull align 8 dereferenceable(8) %0, ptr noundef nonnull align 8 dereferenceable(8) %1) #3 comdat {
  %3 = alloca ptr, align 8
  %4 = alloca ptr, align 8
  store ptr %0, ptr %3, align 8, !tbaa !110
  store ptr %1, ptr %4, align 8, !tbaa !110
  %5 = load ptr, ptr %3, align 8, !tbaa !110
  %6 = call noundef nonnull align 8 dereferenceable(8) ptr @_ZNK9__gnu_cxx17__normal_iteratorIPKN4lean4nameESt6vectorIS2_SaIS2_EEE4baseEv(ptr noundef nonnull align 8 dereferenceable(8) %5) #17
  %7 = load ptr, ptr %6, align 8, !tbaa !3
  %8 = load ptr, ptr %4, align 8, !tbaa !110
  %9 = call noundef nonnull align 8 dereferenceable(8) ptr @_ZNK9__gnu_cxx17__normal_iteratorIPKN4lean4nameESt6vectorIS2_SaIS2_EEE4baseEv(ptr noundef nonnull align 8 dereferenceable(8) %8) #17
  %10 = load ptr, ptr %9, align 8, !tbaa !3
  %11 = icmp eq ptr %7, %10
  ret i1 %11
}

; Function Attrs: mustprogress nounwind uwtable
define linkonce_odr hidden ptr @_ZNKSt6vectorIN4lean4nameESaIS1_EE3endEv(ptr noundef nonnull align 8 dereferenceable(24) %0) #4 comdat align 2 {
  %2 = alloca %"class.__gnu_cxx::__normal_iterator", align 8
  %3 = alloca ptr, align 8
  store ptr %0, ptr %3, align 8, !tbaa !18
  %4 = load ptr, ptr %3, align 8
  %5 = getelementptr inbounds nuw %"struct.std::_Vector_base", ptr %4, i32 0, i32 0
  %6 = getelementptr inbounds nuw %"struct.std::_Vector_base<lean::name, std::allocator<lean::name>>::_Vector_impl_data", ptr %5, i32 0, i32 1
  call void @_ZN9__gnu_cxx17__normal_iteratorIPKN4lean4nameESt6vectorIS2_SaIS2_EEEC2ERKS4_(ptr noundef nonnull align 8 dereferenceable(8) %2, ptr noundef nonnull align 8 dereferenceable(8) %6) #17
  %7 = getelementptr inbounds nuw %"class.__gnu_cxx::__normal_iterator", ptr %2, i32 0, i32 0
  %8 = load ptr, ptr %7, align 8
  ret ptr %8
}

; Function Attrs: mustprogress nounwind uwtable
define linkonce_odr hidden ptr @_ZNKSt6vectorIN4lean4nameESaIS1_EE5beginEv(ptr noundef nonnull align 8 dereferenceable(24) %0) #4 comdat align 2 {
  %2 = alloca %"class.__gnu_cxx::__normal_iterator", align 8
  %3 = alloca ptr, align 8
  store ptr %0, ptr %3, align 8, !tbaa !18
  %4 = load ptr, ptr %3, align 8
  %5 = getelementptr inbounds nuw %"struct.std::_Vector_base", ptr %4, i32 0, i32 0
  %6 = getelementptr inbounds nuw %"struct.std::_Vector_base<lean::name, std::allocator<lean::name>>::_Vector_impl_data", ptr %5, i32 0, i32 0
  call void @_ZN9__gnu_cxx17__normal_iteratorIPKN4lean4nameESt6vectorIS2_SaIS2_EEEC2ERKS4_(ptr noundef nonnull align 8 dereferenceable(8) %2, ptr noundef nonnull align 8 dereferenceable(8) %6) #17
  %7 = getelementptr inbounds nuw %"class.__gnu_cxx::__normal_iterator", ptr %2, i32 0, i32 0
  %8 = load ptr, ptr %7, align 8
  ret ptr %8
}

; Function Attrs: mustprogress nounwind uwtable
define linkonce_odr hidden void @_ZNSt6vectorIN4lean4nameESaIS1_EEC2Ev(ptr noundef nonnull align 8 dereferenceable(24) %0) unnamed_addr #4 comdat align 2 {
  %2 = alloca ptr, align 8
  store ptr %0, ptr %2, align 8, !tbaa !18
  %3 = load ptr, ptr %2, align 8
  call void @_ZNSt12_Vector_baseIN4lean4nameESaIS1_EEC2Ev(ptr noundef nonnull align 8 dereferenceable(24) %3) #17
  ret void
}

; Function Attrs: mustprogress nounwind uwtable
define linkonce_odr hidden noundef zeroext i1 @_ZNKSt6vectorIN4lean4nameESaIS1_EE5emptyEv(ptr noundef nonnull align 8 dereferenceable(24) %0) #4 comdat align 2 {
  %2 = alloca ptr, align 8
  %3 = alloca %"class.__gnu_cxx::__normal_iterator", align 8
  %4 = alloca %"class.__gnu_cxx::__normal_iterator", align 8
  store ptr %0, ptr %2, align 8, !tbaa !18
  %5 = load ptr, ptr %2, align 8
  call void @llvm.lifetime.start.p0(i64 8, ptr %3) #17
  %6 = call ptr @_ZNKSt6vectorIN4lean4nameESaIS1_EE5beginEv(ptr noundef nonnull align 8 dereferenceable(24) %5) #17
  %7 = getelementptr inbounds nuw %"class.__gnu_cxx::__normal_iterator", ptr %3, i32 0, i32 0
  store ptr %6, ptr %7, align 8
  call void @llvm.lifetime.start.p0(i64 8, ptr %4) #17
  %8 = call ptr @_ZNKSt6vectorIN4lean4nameESaIS1_EE3endEv(ptr noundef nonnull align 8 dereferenceable(24) %5) #17
  %9 = getelementptr inbounds nuw %"class.__gnu_cxx::__normal_iterator", ptr %4, i32 0, i32 0
  store ptr %8, ptr %9, align 8
  %10 = call noundef zeroext i1 @_ZN9__gnu_cxxeqIPKN4lean4nameESt6vectorIS2_SaIS2_EEEEbRKNS_17__normal_iteratorIT_T0_EESD_(ptr noundef nonnull align 8 dereferenceable(8) %3, ptr noundef nonnull align 8 dereferenceable(8) %4) #17
  call void @llvm.lifetime.end.p0(i64 8, ptr %4) #17
  call void @llvm.lifetime.end.p0(i64 8, ptr %3) #17
  ret i1 %10
}

; Function Attrs: mustprogress uwtable
define internal noundef nonnull align 8 dereferenceable(24) ptr @_ZN4leanL25get_enabled_trace_classesEv() #0 {
  %1 = call align 8 ptr @llvm.threadlocal.address.p0(ptr align 8 @_ZN4leanL32get_enabled_trace_classes_tlocalE)
  %2 = load ptr, ptr %1, align 8, !tbaa !18
  %3 = icmp ne ptr %2, null
  br i1 %3, label %9, label %4

4:                                                ; preds = %0
  %5 = call noalias noundef nonnull ptr @_Znwm(i64 noundef 24) #18
  call void @llvm.memset.p0.i64(ptr align 16 %5, i8 0, i64 24, i1 false)
  call void @_ZNSt6vectorIN4lean4nameESaIS1_EEC2Ev(ptr noundef nonnull align 8 dereferenceable(24) %5) #17
  %6 = call align 8 ptr @llvm.threadlocal.address.p0(ptr align 8 @_ZN4leanL32get_enabled_trace_classes_tlocalE)
  store ptr %5, ptr %6, align 8, !tbaa !18
  %7 = call align 8 ptr @llvm.threadlocal.address.p0(ptr align 8 @_ZN4leanL32get_enabled_trace_classes_tlocalE)
  %8 = load ptr, ptr %7, align 8, !tbaa !18
  call void @_ZN4lean25register_thread_finalizerEPFvPvES0_(ptr noundef @_ZN4leanL34finalize_get_enabled_trace_classesEPv, ptr noundef %8)
  br label %9

9:                                                ; preds = %4, %0
  %10 = call align 8 ptr @llvm.threadlocal.address.p0(ptr align 8 @_ZN4leanL32get_enabled_trace_classes_tlocalE)
  %11 = load ptr, ptr %10, align 8, !tbaa !18
  ret ptr %11
}

; Function Attrs: mustprogress uwtable
define internal noundef nonnull align 8 dereferenceable(24) ptr @_ZN4leanL26get_disabled_trace_classesEv() #0 {
  %1 = call align 8 ptr @llvm.threadlocal.address.p0(ptr align 8 @_ZN4leanL33get_disabled_trace_classes_tlocalE)
  %2 = load ptr, ptr %1, align 8, !tbaa !18
  %3 = icmp ne ptr %2, null
  br i1 %3, label %9, label %4

4:                                                ; preds = %0
  %5 = call noalias noundef nonnull ptr @_Znwm(i64 noundef 24) #18
  call void @llvm.memset.p0.i64(ptr align 16 %5, i8 0, i64 24, i1 false)
  call void @_ZNSt6vectorIN4lean4nameESaIS1_EEC2Ev(ptr noundef nonnull align 8 dereferenceable(24) %5) #17
  %6 = call align 8 ptr @llvm.threadlocal.address.p0(ptr align 8 @_ZN4leanL33get_disabled_trace_classes_tlocalE)
  store ptr %5, ptr %6, align 8, !tbaa !18
  %7 = call align 8 ptr @llvm.threadlocal.address.p0(ptr align 8 @_ZN4leanL33get_disabled_trace_classes_tlocalE)
  %8 = load ptr, ptr %7, align 8, !tbaa !18
  call void @_ZN4lean25register_thread_finalizerEPFvPvES0_(ptr noundef @_ZN4leanL35finalize_get_disabled_trace_classesEPv, ptr noundef %8)
  br label %9

9:                                                ; preds = %4, %0
  %10 = call align 8 ptr @llvm.threadlocal.address.p0(ptr align 8 @_ZN4leanL33get_disabled_trace_classes_tlocalE)
  %11 = load ptr, ptr %10, align 8, !tbaa !18
  ret ptr %11
}

; Function Attrs: mustprogress uwtable
define hidden noundef zeroext i1 @_ZN4lean16is_trace_enabledEv() #0 {
  %1 = call noundef nonnull align 8 dereferenceable(24) ptr @_ZN4leanL25get_enabled_trace_classesEv()
  %2 = call noundef zeroext i1 @_ZNKSt6vectorIN4lean4nameESaIS1_EE5emptyEv(ptr noundef nonnull align 8 dereferenceable(24) %1) #17
  %3 = xor i1 %2, true
  ret i1 %3
}

; Function Attrs: mustprogress uwtable
define hidden noundef zeroext i1 @_ZN4lean22is_trace_class_enabledERKNS_4nameE(ptr noundef nonnull align 8 dereferenceable(8) %0) #0 {
  %2 = alloca i1, align 1
  %3 = alloca ptr, align 8
  store ptr %0, ptr %3, align 8, !tbaa !3
  %4 = call noundef zeroext i1 @_ZN4lean16is_trace_enabledEv()
  br i1 %4, label %6, label %5

5:                                                ; preds = %1
  store i1 false, ptr %2, align 1
  br label %15

6:                                                ; preds = %1
  %7 = call noundef nonnull align 8 dereferenceable(24) ptr @_ZN4leanL26get_disabled_trace_classesEv()
  %8 = load ptr, ptr %3, align 8, !tbaa !3
  %9 = call noundef zeroext i1 @_ZN4leanL18is_trace_class_setERKSt6vectorINS_4nameESaIS1_EERKS1_(ptr noundef nonnull align 8 dereferenceable(24) %7, ptr noundef nonnull align 8 dereferenceable(8) %8)
  br i1 %9, label %10, label %11

10:                                               ; preds = %6
  store i1 false, ptr %2, align 1
  br label %15

11:                                               ; preds = %6
  %12 = call noundef nonnull align 8 dereferenceable(24) ptr @_ZN4leanL25get_enabled_trace_classesEv()
  %13 = load ptr, ptr %3, align 8, !tbaa !3
  %14 = call noundef zeroext i1 @_ZN4leanL18is_trace_class_setERKSt6vectorINS_4nameESaIS1_EERKS1_(ptr noundef nonnull align 8 dereferenceable(24) %12, ptr noundef nonnull align 8 dereferenceable(8) %13)
  store i1 %14, ptr %2, align 1
  br label %15

15:                                               ; preds = %11, %10, %5
  %16 = load i1, ptr %2, align 1
  ret i1 %16
}