; Function Attrs: mustprogress uwtable
define hidden noundef zeroext i1 @_ZN4lean22is_trace_class_enabledERKNS_4nameE(ptr noundef nonnull align 8 dereferenceable(8) %0) local_unnamed_addr #0 {
  %2 = tail call align 8 ptr @llvm.threadlocal.address.p0(ptr align 8 @_ZN4leanL32get_enabled_trace_classes_tlocalE)
  %3 = load ptr, ptr %2, align 8, !tbaa !56
  %.not.i.i = icmp eq ptr %3, null
  br i1 %.not.i.i, label %4, label %_ZN4lean16is_trace_enabledEv.exit

4:                                                ; preds = %1
  %5 = tail call noalias noundef nonnull dereferenceable(24) ptr @_Znwm(i64 noundef 24) #23
  tail call void @llvm.memset.p0.i64(ptr noundef nonnull align 8 dereferenceable(24) %5, i8 0, i64 24, i1 false)
  store ptr %5, ptr %2, align 8, !tbaa !56
  tail call void @_ZN4lean25register_thread_finalizerEPFvPvES0_(ptr noundef nonnull @_ZN4leanL34finalize_get_enabled_trace_classesEPv, ptr noundef nonnull %5)
  %.pre.i.i = load ptr, ptr %2, align 8, !tbaa !56
  br label %_ZN4lean16is_trace_enabledEv.exit

_ZN4lean16is_trace_enabledEv.exit:                ; preds = %1, %4
  %6 = phi ptr [ %.pre.i.i, %4 ], [ %3, %1 ]
  %7 = load ptr, ptr %6, align 8, !tbaa !58
  %8 = getelementptr inbounds nuw i8, ptr %6, i64 8
  %9 = load ptr, ptr %8, align 8, !tbaa !58
  %.not = icmp eq ptr %7, %9
  br i1 %.not, label %23, label %10

10:                                               ; preds = %_ZN4lean16is_trace_enabledEv.exit
  %11 = tail call align 8 ptr @llvm.threadlocal.address.p0(ptr align 8 @_ZN4leanL33get_disabled_trace_classes_tlocalE)
  %12 = load ptr, ptr %11, align 8, !tbaa !56
  %.not.i = icmp eq ptr %12, null
  br i1 %.not.i, label %13, label %_ZN4leanL26get_disabled_trace_classesEv.exit

13:                                               ; preds = %10
  %14 = tail call noalias noundef nonnull dereferenceable(24) ptr @_Znwm(i64 noundef 24) #23
  tail call void @llvm.memset.p0.i64(ptr noundef nonnull align 8 dereferenceable(24) %14, i8 0, i64 24, i1 false)
  store ptr %14, ptr %11, align 8, !tbaa !56
  tail call void @_ZN4lean25register_thread_finalizerEPFvPvES0_(ptr noundef nonnull @_ZN4leanL35finalize_get_disabled_trace_classesEPv, ptr noundef nonnull %14)
  %.pre.i = load ptr, ptr %11, align 8, !tbaa !56
  br label %_ZN4leanL26get_disabled_trace_classesEv.exit

_ZN4leanL26get_disabled_trace_classesEv.exit:     ; preds = %10, %13
  %15 = phi ptr [ %.pre.i, %13 ], [ %12, %10 ]
  %16 = tail call fastcc noundef zeroext i1 @_ZN4leanL18is_trace_class_setERKSt6vectorINS_4nameESaIS1_EERKS1_(ptr noundef nonnull align 8 dereferenceable(24) %15, ptr noundef nonnull align 8 dereferenceable(8) %0)
  br i1 %16, label %23, label %17

17:                                               ; preds = %_ZN4leanL26get_disabled_trace_classesEv.exit
  %18 = load ptr, ptr %2, align 8, !tbaa !56
  %.not.i3 = icmp eq ptr %18, null
  br i1 %.not.i3, label %19, label %_ZN4leanL25get_enabled_trace_classesEv.exit

19:                                               ; preds = %17
  %20 = tail call noalias noundef nonnull dereferenceable(24) ptr @_Znwm(i64 noundef 24) #23
  tail call void @llvm.memset.p0.i64(ptr noundef nonnull align 8 dereferenceable(24) %20, i8 0, i64 24, i1 false)
  store ptr %20, ptr %2, align 8, !tbaa !56
  tail call void @_ZN4lean25register_thread_finalizerEPFvPvES0_(ptr noundef nonnull @_ZN4leanL34finalize_get_enabled_trace_classesEPv, ptr noundef nonnull %20)
  %.pre.i4 = load ptr, ptr %2, align 8, !tbaa !56
  br label %_ZN4leanL25get_enabled_trace_classesEv.exit

_ZN4leanL25get_enabled_trace_classesEv.exit:      ; preds = %17, %19
  %21 = phi ptr [ %.pre.i4, %19 ], [ %18, %17 ]
  %22 = tail call fastcc noundef zeroext i1 @_ZN4leanL18is_trace_class_setERKSt6vectorINS_4nameESaIS1_EERKS1_(ptr noundef nonnull align 8 dereferenceable(24) %21, ptr noundef nonnull align 8 dereferenceable(8) %0)
  br label %23

23:                                               ; preds = %_ZN4leanL26get_disabled_trace_classesEv.exit, %_ZN4lean16is_trace_enabledEv.exit, %_ZN4leanL25get_enabled_trace_classesEv.exit
  %.0 = phi i1 [ %22, %_ZN4leanL25get_enabled_trace_classesEv.exit ], [ false, %_ZN4lean16is_trace_enabledEv.exit ], [ false, %_ZN4leanL26get_disabled_trace_classesEv.exit ]
  ret i1 %.0
}